; Function Attrs: nounwind uwtable
define range(i32 0, 2) i32 @ossl_decoder_ctx_add_decoder_inst(ptr noundef captures(none) %0, ptr noundef %1) local_unnamed_addr #0 {
  %3 = getelementptr inbounds nuw i8, ptr %0, i64 24
  %4 = load ptr, ptr %3, align 8, !tbaa !3
  %5 = icmp eq ptr %4, null
  br i1 %5, label %6, label %10

6:                                                ; preds = %2
  %7 = tail call ptr @OPENSSL_sk_new_null() #8
  store ptr %7, ptr %3, align 8, !tbaa !3
  %8 = icmp eq ptr %7, null
  br i1 %8, label %9, label %10

9:                                                ; preds = %6
  tail call void @ERR_new() #8
  tail call void @ERR_set_debug(ptr noundef nonnull @.str, i32 noundef 333, ptr noundef nonnull @__func__.ossl_decoder_ctx_add_decoder_inst) #8
  tail call void (i32, i32, ptr, ...) @ERR_set_error(i32 noundef 60, i32 noundef 524303, ptr noundef null) #8
  br label %15

10:                                               ; preds = %6, %2
  %11 = phi ptr [ %7, %6 ], [ %4, %2 ]
  %12 = tail call i32 @OPENSSL_sk_push(ptr noundef nonnull %11, ptr noundef %1) #8
  %13 = icmp sgt i32 %12, 0
  %14 = zext i1 %13 to i32
  br label %15

15:                                               ; preds = %10, %9
  %.0 = phi i32 [ 0, %9 ], [ %14, %10 ]
  ret i32 %.0
}